ccopy_reg
_reconstructor
p0
(cgoogle.oauth2.credentials
Credentials
p1
c__builtin__
object
p2
Ntp3
Rp4
(dp5
S'_token_uri'
p6
Vhttps://oauth2.googleapis.com/token
p7
sS'_scopes'
p8
(lp9
S'https://mail.google.com/'
p10
asS'_id_token'
p11
NsS'token'
p12
Vya29.GluoBjdy_eMJl4bvWjYxMnTHVwd7Bj4FmDEvefIK1BySix6uGM8thNwbkwq-IxnErJAkSvGJEmHDm8nI0LukXsMxGdzxn_Eeos4r9KZVrV9QC6PWkKadrOX2uev1
p13
sS'_refresh_token'
p14
V1/BSNo7ID2qQ7B0UYQ-Bsi8Mb1REX8Jlluwm8FQrfEXC0
p15
sS'_client_secret'
p16
VzqHLhz7LmECXvhhUuxdtnhsf
p17
sS'_client_id'
p18
V1052042392388-a81d4871gppei1ki5160mengkvqc0hu9.apps.googleusercontent.com
p19
sS'expiry'
p20
cdatetime
datetime
p21
(S'\x07\xe3\x02\x05\x17\x03\n\x0c\x12\n'
p22
tp23
Rp24
sb.